target datalayout = "e-m:e-p270:32:32-p271:32:32-p272:64:64-i64:64-i128:128-f80:128-n8:16:32:64-S128"
target triple = "x86_64-pc-linux-gnu"

%"struct.Luau::FValue" = type { i8, i8, ptr, ptr }
%"struct.Luau::Symbol" = type { ptr, %"struct.Luau::AstName" }
%"struct.Luau::AstName" = type { ptr }

@_ZN5FFlag18LuauSymbolEqualityE = dso_local global %"struct.Luau::FValue" zeroinitializer, align 8
@_ZN5FFlag12LuauSolverV2E = external global %"struct.Luau::FValue", align 8

; Function Attrs: alwaysinline mustprogress nounwind uwtable
define linkonce_odr dso_local noundef zeroext i1 @_ZNK4Luau6FValueIbEcvbEv(ptr noundef nonnull align 8 dereferenceable(24) %0) #4 comdat align 2 {
  %2 = alloca ptr, align 8
  store ptr %0, ptr %2, align 8, !tbaa !8
  %3 = load ptr, ptr %2, align 8
  %4 = getelementptr inbounds nuw %"struct.Luau::FValue", ptr %3, i32 0, i32 0
  %5 = load i8, ptr %4, align 8, !tbaa !17, !range !15, !noundef !16
  %6 = trunc i8 %5 to i1
  ret i1 %6
}

; Function Attrs: mustprogress nounwind uwtable
define linkonce_odr dso_local noundef zeroext i1 @_ZNK4Luau7AstNameeqEPKc(ptr noundef nonnull align 8 dereferenceable(8) %0, ptr noundef %1) #2 comdat align 2 {
  %3 = alloca ptr, align 8
  %4 = alloca ptr, align 8
  store ptr %0, ptr %3, align 8, !tbaa !29
  store ptr %1, ptr %4, align 8, !tbaa !11
  %5 = load ptr, ptr %3, align 8
  %6 = getelementptr inbounds nuw %"struct.Luau::AstName", ptr %5, i32 0, i32 0
  %7 = load ptr, ptr %6, align 8, !tbaa !31
  %8 = icmp ne ptr %7, null
  br i1 %8, label %9, label %15

9:                                                ; preds = %2
  %10 = getelementptr inbounds nuw %"struct.Luau::AstName", ptr %5, i32 0, i32 0
  %11 = load ptr, ptr %10, align 8, !tbaa !31
  %12 = load ptr, ptr %4, align 8, !tbaa !11
  %13 = call i32 @strcmp(ptr noundef %11, ptr noundef %12) #14
  %14 = icmp eq i32 %13, 0
  br label %15

15:                                               ; preds = %9, %2
  %16 = phi i1 [ false, %2 ], [ %14, %9 ]
  ret i1 %16
}

; Function Attrs: mustprogress uwtable
define dso_local noundef zeroext i1 @_ZNK4Luau6SymboleqERKS0_(ptr noundef nonnull align 8 dereferenceable(16) %0, ptr noundef nonnull align 8 dereferenceable(16) %1) #3 align 2 {
  %3 = alloca i1, align 1
  %4 = alloca ptr, align 8
  %5 = alloca ptr, align 8
  store ptr %0, ptr %4, align 8, !tbaa !22
  store ptr %1, ptr %5, align 8, !tbaa !22
  %6 = load ptr, ptr %4, align 8
  %7 = getelementptr inbounds nuw %"struct.Luau::Symbol", ptr %6, i32 0, i32 0
  %8 = load ptr, ptr %7, align 8, !tbaa !24
  %9 = icmp ne ptr %8, null
  br i1 %9, label %10, label %17

10:                                               ; preds = %2
  %11 = getelementptr inbounds nuw %"struct.Luau::Symbol", ptr %6, i32 0, i32 0
  %12 = load ptr, ptr %11, align 8, !tbaa !24
  %13 = load ptr, ptr %5, align 8, !tbaa !22
  %14 = getelementptr inbounds nuw %"struct.Luau::Symbol", ptr %13, i32 0, i32 0
  %15 = load ptr, ptr %14, align 8, !tbaa !24
  %16 = icmp eq ptr %12, %15
  store i1 %16, ptr %3, align 1
  br label %56

17:                                               ; preds = %2
  %18 = getelementptr inbounds nuw %"struct.Luau::Symbol", ptr %6, i32 0, i32 1
  %19 = getelementptr inbounds nuw %"struct.Luau::AstName", ptr %18, i32 0, i32 0
  %20 = load ptr, ptr %19, align 8, !tbaa !28
  %21 = icmp ne ptr %20, null
  br i1 %21, label %22, label %37

22:                                               ; preds = %17
  %23 = load ptr, ptr %5, align 8, !tbaa !22
  %24 = getelementptr inbounds nuw %"struct.Luau::Symbol", ptr %23, i32 0, i32 1
  %25 = getelementptr inbounds nuw %"struct.Luau::AstName", ptr %24, i32 0, i32 0
  %26 = load ptr, ptr %25, align 8, !tbaa !28
  %27 = icmp ne ptr %26, null
  br i1 %27, label %28, label %35

28:                                               ; preds = %22
  %29 = getelementptr inbounds nuw %"struct.Luau::Symbol", ptr %6, i32 0, i32 1
  %30 = load ptr, ptr %5, align 8, !tbaa !22
  %31 = getelementptr inbounds nuw %"struct.Luau::Symbol", ptr %30, i32 0, i32 1
  %32 = getelementptr inbounds nuw %"struct.Luau::AstName", ptr %31, i32 0, i32 0
  %33 = load ptr, ptr %32, align 8, !tbaa !28
  %34 = call noundef zeroext i1 @_ZNK4Luau7AstNameeqEPKc(ptr noundef nonnull align 8 dereferenceable(8) %29, ptr noundef %33)
  br label %35

35:                                               ; preds = %28, %22
  %36 = phi i1 [ false, %22 ], [ %34, %28 ]
  store i1 %36, ptr %3, align 1
  br label %56

37:                                               ; preds = %17
  %38 = call noundef zeroext i1 @_ZNK4Luau6FValueIbEcvbEv(ptr noundef nonnull align 8 dereferenceable(24) @_ZN5FFlag12LuauSolverV2E)
  br i1 %38, label %41, label %39

39:                                               ; preds = %37
  %40 = call noundef zeroext i1 @_ZNK4Luau6FValueIbEcvbEv(ptr noundef nonnull align 8 dereferenceable(24) @_ZN5FFlag18LuauSymbolEqualityE)
  br i1 %40, label %41, label %55

41:                                               ; preds = %39, %37
  %42 = load ptr, ptr %5, align 8, !tbaa !22
  %43 = getelementptr inbounds nuw %"struct.Luau::Symbol", ptr %42, i32 0, i32 0
  %44 = load ptr, ptr %43, align 8, !tbaa !24
  %45 = icmp ne ptr %44, null
  br i1 %45, label %53, label %46

46:                                               ; preds = %41
  %47 = load ptr, ptr %5, align 8, !tbaa !22
  %48 = getelementptr inbounds nuw %"struct.Luau::Symbol", ptr %47, i32 0, i32 1
  %49 = getelementptr inbounds nuw %"struct.Luau::AstName", ptr %48, i32 0, i32 0
  %50 = load ptr, ptr %49, align 8, !tbaa !28
  %51 = icmp ne ptr %50, null
  %52 = xor i1 %51, true
  br label %53

53:                                               ; preds = %46, %41
  %54 = phi i1 [ false, %41 ], [ %52, %46 ]
  store i1 %54, ptr %3, align 1
  br label %56

55:                                               ; preds = %39
  store i1 false, ptr %3, align 1
  br label %56

56:                                               ; preds = %55, %53, %35, %10
  %57 = load i1, ptr %3, align 1
  ret i1 %57
}